target datalayout = "e-m:e-p270:32:32-p271:32:32-p272:64:64-i64:64-i128:128-f80:128-n8:16:32:64-S128"
target triple = "x86_64-pc-linux-gnu"

%struct.UBiDi = type { ptr, ptr, i32, i32, i32, i32, i32, i32, i32, i32, i32, ptr, ptr, ptr, ptr, ptr, ptr, i8, i8, ptr, ptr, i8, i32, i32, i8, i8, i8, ptr, i32, ptr, i32, ptr, i32, i32, i32, i32, i32, ptr, [10 x %struct.Para], i32, ptr, [1 x %struct.Run], i32, ptr, [5 x %struct.Isolate], %struct.InsertPoints, i32, ptr, ptr }
%struct.Para = type { i32, i32 }
%struct.Run = type { i32, i32, i32 }
%struct.Isolate = type { i32, i32, i32, i16 }
%struct.InsertPoints = type { i32, i32, i32, i32, ptr }

; Function Attrs: mustprogress uwtable
define void @ubidi_close_77(ptr noundef %0) #0 {
  %2 = alloca ptr, align 8
  store ptr %0, ptr %2, align 8, !tbaa !11
  %3 = load ptr, ptr %2, align 8, !tbaa !11
  %4 = icmp ne ptr %3, null
  br i1 %4, label %5, label %74

5:                                                ; preds = %1
  %6 = load ptr, ptr %2, align 8, !tbaa !11
  %7 = getelementptr inbounds nuw %struct.UBiDi, ptr %6, i32 0, i32 0
  store ptr null, ptr %7, align 8, !tbaa !33
  %8 = load ptr, ptr %2, align 8, !tbaa !11
  %9 = getelementptr inbounds nuw %struct.UBiDi, ptr %8, i32 0, i32 11
  %10 = load ptr, ptr %9, align 8, !tbaa !34
  %11 = icmp ne ptr %10, null
  br i1 %11, label %12, label %16

12:                                               ; preds = %5
  %13 = load ptr, ptr %2, align 8, !tbaa !11
  %14 = getelementptr inbounds nuw %struct.UBiDi, ptr %13, i32 0, i32 11
  %15 = load ptr, ptr %14, align 8, !tbaa !34
  call void @uprv_free_77(ptr noundef %15)
  br label %16

16:                                               ; preds = %12, %5
  %17 = load ptr, ptr %2, align 8, !tbaa !11
  %18 = getelementptr inbounds nuw %struct.UBiDi, ptr %17, i32 0, i32 12
  %19 = load ptr, ptr %18, align 8, !tbaa !35
  %20 = icmp ne ptr %19, null
  br i1 %20, label %21, label %25

21:                                               ; preds = %16
  %22 = load ptr, ptr %2, align 8, !tbaa !11
  %23 = getelementptr inbounds nuw %struct.UBiDi, ptr %22, i32 0, i32 12
  %24 = load ptr, ptr %23, align 8, !tbaa !35
  call void @uprv_free_77(ptr noundef %24)
  br label %25

25:                                               ; preds = %21, %16
  %26 = load ptr, ptr %2, align 8, !tbaa !11
  %27 = getelementptr inbounds nuw %struct.UBiDi, ptr %26, i32 0, i32 13
  %28 = load ptr, ptr %27, align 8, !tbaa !36
  %29 = icmp ne ptr %28, null
  br i1 %29, label %30, label %34

30:                                               ; preds = %25
  %31 = load ptr, ptr %2, align 8, !tbaa !11
  %32 = getelementptr inbounds nuw %struct.UBiDi, ptr %31, i32 0, i32 13
  %33 = load ptr, ptr %32, align 8, !tbaa !36
  call void @uprv_free_77(ptr noundef %33)
  br label %34

34:                                               ; preds = %30, %25
  %35 = load ptr, ptr %2, align 8, !tbaa !11
  %36 = getelementptr inbounds nuw %struct.UBiDi, ptr %35, i32 0, i32 14
  %37 = load ptr, ptr %36, align 8, !tbaa !37
  %38 = icmp ne ptr %37, null
  br i1 %38, label %39, label %43

39:                                               ; preds = %34
  %40 = load ptr, ptr %2, align 8, !tbaa !11
  %41 = getelementptr inbounds nuw %struct.UBiDi, ptr %40, i32 0, i32 14
  %42 = load ptr, ptr %41, align 8, !tbaa !37
  call void @uprv_free_77(ptr noundef %42)
  br label %43

43:                                               ; preds = %39, %34
  %44 = load ptr, ptr %2, align 8, !tbaa !11
  %45 = getelementptr inbounds nuw %struct.UBiDi, ptr %44, i32 0, i32 15
  %46 = load ptr, ptr %45, align 8, !tbaa !38
  %47 = icmp ne ptr %46, null
  br i1 %47, label %48, label %52

48:                                               ; preds = %43
  %49 = load ptr, ptr %2, align 8, !tbaa !11
  %50 = getelementptr inbounds nuw %struct.UBiDi, ptr %49, i32 0, i32 15
  %51 = load ptr, ptr %50, align 8, !tbaa !38
  call void @uprv_free_77(ptr noundef %51)
  br label %52

52:                                               ; preds = %48, %43
  %53 = load ptr, ptr %2, align 8, !tbaa !11
  %54 = getelementptr inbounds nuw %struct.UBiDi, ptr %53, i32 0, i32 16
  %55 = load ptr, ptr %54, align 8, !tbaa !39
  %56 = icmp ne ptr %55, null
  br i1 %56, label %57, label %61

57:                                               ; preds = %52
  %58 = load ptr, ptr %2, align 8, !tbaa !11
  %59 = getelementptr inbounds nuw %struct.UBiDi, ptr %58, i32 0, i32 16
  %60 = load ptr, ptr %59, align 8, !tbaa !39
  call void @uprv_free_77(ptr noundef %60)
  br label %61

61:                                               ; preds = %57, %52
  %62 = load ptr, ptr %2, align 8, !tbaa !11
  %63 = getelementptr inbounds nuw %struct.UBiDi, ptr %62, i32 0, i32 45
  %64 = getelementptr inbounds nuw %struct.InsertPoints, ptr %63, i32 0, i32 4
  %65 = load ptr, ptr %64, align 8, !tbaa !40
  %66 = icmp ne ptr %65, null
  br i1 %66, label %67, label %72

67:                                               ; preds = %61
  %68 = load ptr, ptr %2, align 8, !tbaa !11
  %69 = getelementptr inbounds nuw %struct.UBiDi, ptr %68, i32 0, i32 45
  %70 = getelementptr inbounds nuw %struct.InsertPoints, ptr %69, i32 0, i32 4
  %71 = load ptr, ptr %70, align 8, !tbaa !40
  call void @uprv_free_77(ptr noundef %71)
  br label %72

72:                                               ; preds = %67, %61
  %73 = load ptr, ptr %2, align 8, !tbaa !11
  call void @uprv_free_77(ptr noundef %73)
  br label %74

74:                                               ; preds = %72, %1
  ret void
}