; Function Attrs: mustprogress uwtable
define void @ubidi_close_77(ptr noundef %0) local_unnamed_addr #0 {
  %.not = icmp eq ptr %0, null
  br i1 %.not, label %31, label %2

2:                                                ; preds = %1
  store ptr null, ptr %0, align 8, !tbaa !27
  %3 = getelementptr inbounds nuw i8, ptr %0, i64 56
  %4 = load ptr, ptr %3, align 8, !tbaa !28
  %.not24 = icmp eq ptr %4, null
  br i1 %.not24, label %6, label %5

5:                                                ; preds = %2
  tail call void @uprv_free_77(ptr noundef nonnull %4)
  br label %6

6:                                                ; preds = %5, %2
  %7 = getelementptr inbounds nuw i8, ptr %0, i64 64
  %8 = load ptr, ptr %7, align 8, !tbaa !29
  %.not25 = icmp eq ptr %8, null
  br i1 %.not25, label %10, label %9

9:                                                ; preds = %6
  tail call void @uprv_free_77(ptr noundef nonnull %8)
  br label %10

10:                                               ; preds = %9, %6
  %11 = getelementptr inbounds nuw i8, ptr %0, i64 72
  %12 = load ptr, ptr %11, align 8, !tbaa !30
  %.not26 = icmp eq ptr %12, null
  br i1 %.not26, label %14, label %13

13:                                               ; preds = %10
  tail call void @uprv_free_77(ptr noundef nonnull %12)
  br label %14

14:                                               ; preds = %13, %10
  %15 = getelementptr inbounds nuw i8, ptr %0, i64 80
  %16 = load ptr, ptr %15, align 8, !tbaa !31
  %.not27 = icmp eq ptr %16, null
  br i1 %.not27, label %18, label %17

17:                                               ; preds = %14
  tail call void @uprv_free_77(ptr noundef nonnull %16)
  br label %18

18:                                               ; preds = %17, %14
  %19 = getelementptr inbounds nuw i8, ptr %0, i64 88
  %20 = load ptr, ptr %19, align 8, !tbaa !32
  %.not28 = icmp eq ptr %20, null
  br i1 %.not28, label %22, label %21

21:                                               ; preds = %18
  tail call void @uprv_free_77(ptr noundef nonnull %20)
  br label %22

22:                                               ; preds = %21, %18
  %23 = getelementptr inbounds nuw i8, ptr %0, i64 96
  %24 = load ptr, ptr %23, align 8, !tbaa !33
  %.not29 = icmp eq ptr %24, null
  br i1 %.not29, label %26, label %25

25:                                               ; preds = %22
  tail call void @uprv_free_77(ptr noundef nonnull %24)
  br label %26

26:                                               ; preds = %25, %22
  %27 = getelementptr inbounds nuw i8, ptr %0, i64 432
  %28 = load ptr, ptr %27, align 8, !tbaa !34
  %.not30 = icmp eq ptr %28, null
  br i1 %.not30, label %30, label %29

29:                                               ; preds = %26
  tail call void @uprv_free_77(ptr noundef nonnull %28)
  br label %30

30:                                               ; preds = %29, %26
  tail call void @uprv_free_77(ptr noundef nonnull %0)
  br label %31

31:                                               ; preds = %30, %1
  ret void
}